; ModuleID = '60/1684.c'
source_filename = "60/1684.c"
target datalayout = "e-m:e-p270:32:32-p271:32:32-p272:64:64-i64:64-f80:128-n8:16:32:64-S128"
target triple = "x86_64-pc-linux-gnu"

@.str = private unnamed_addr constant [3 x i8] c"%d\00", align 1
@.str.1 = private unnamed_addr constant [6 x i8] c"empty\00", align 1
@.str.2 = private unnamed_addr constant [7 x i8] c"%d %d\0A\00", align 1

; Function Attrs: noinline nounwind uwtable
define dso_local void @main() #0 {
  %1 = alloca i32, align 4
  %2 = alloca i32, align 4
  %3 = alloca i32, align 4
  %4 = alloca i32, align 4
  %5 = alloca i32*, align 8
  %6 = alloca i32, align 4
  store i32 1, i32* %4, align 4
  store i32 0, i32* %6, align 4
  %7 = call i32 (i8*, ...) @__isoc99_scanf(i8* getelementptr inbounds ([3 x i8], [3 x i8]* @.str, i64 0, i64 0), i32* %1)
  %8 = load i32, i32* %1, align 4
  %9 = sext i32 %8 to i64
  %10 = mul i64 4, %9
  %11 = call noalias i8* @malloc(i64 %10) #3
  %12 = bitcast i8* %11 to i32*
  store i32* %12, i32** %5, align 8
  %13 = load i32, i32* %1, align 4
  %14 = icmp eq i32 %13, 1
  br i1 %14, label %15, label %17

15:                                               ; preds = %0
  %16 = call i32 (i8*, ...) @printf(i8* getelementptr inbounds ([6 x i8], [6 x i8]* @.str.1, i64 0, i64 0))
  br label %17

17:                                               ; preds = %15, %0
  %18 = load i32, i32* %1, align 4
  %19 = icmp eq i32 %18, 2
  br i1 %19, label %20, label %22

20:                                               ; preds = %17
  %21 = call i32 (i8*, ...) @printf(i8* getelementptr inbounds ([6 x i8], [6 x i8]* @.str.1, i64 0, i64 0))
  br label %22

22:                                               ; preds = %20, %17
  %23 = load i32, i32* %1, align 4
  %24 = icmp eq i32 %23, 3
  br i1 %24, label %25, label %27

25:                                               ; preds = %22
  %26 = call i32 (i8*, ...) @printf(i8* getelementptr inbounds ([6 x i8], [6 x i8]* @.str.1, i64 0, i64 0))
  br label %27

27:                                               ; preds = %25, %22
  %28 = load i32, i32* %1, align 4
  %29 = icmp eq i32 %28, 4
  br i1 %29, label %30, label %32

30:                                               ; preds = %27
  %31 = call i32 (i8*, ...) @printf(i8* getelementptr inbounds ([6 x i8], [6 x i8]* @.str.1, i64 0, i64 0))
  br label %32

32:                                               ; preds = %30, %27
  %33 = load i32, i32* %1, align 4
  %34 = icmp sge i32 %33, 5
  br i1 %34, label %35, label %108

35:                                               ; preds = %32
  store i32 2, i32* %2, align 4
  br label %36

36:                                               ; preds = %68, %35
  %37 = load i32, i32* %2, align 4
  %38 = load i32, i32* %1, align 4
  %39 = icmp sle i32 %37, %38
  br i1 %39, label %40, label %71

40:                                               ; preds = %36
  store i32 2, i32* %3, align 4
  br label %41

41:                                               ; preds = %52, %40
  %42 = load i32, i32* %3, align 4
  %43 = load i32, i32* %2, align 4
  %44 = icmp slt i32 %42, %43
  br i1 %44, label %45, label %55

45:                                               ; preds = %41
  %46 = load i32, i32* %2, align 4
  %47 = load i32, i32* %3, align 4
  %48 = srem i32 %46, %47
  %49 = icmp eq i32 %48, 0
  br i1 %49, label %50, label %51

50:                                               ; preds = %45
  br label %55

51:                                               ; preds = %45
  br label %52

52:                                               ; preds = %51
  %53 = load i32, i32* %3, align 4
  %54 = add nsw i32 %53, 1
  store i32 %54, i32* %3, align 4
  br label %41

55:                                               ; preds = %50, %41
  %56 = load i32, i32* %2, align 4
  %57 = load i32, i32* %3, align 4
  %58 = icmp sle i32 %56, %57
  br i1 %58, label %59, label %67

59:                                               ; preds = %55
  %60 = load i32, i32* %2, align 4
  %61 = load i32*, i32** %5, align 8
  %62 = load i32, i32* %6, align 4
  %63 = sext i32 %62 to i64
  %64 = getelementptr inbounds i32, i32* %61, i64 %63
  store i32 %60, i32* %64, align 4
  %65 = load i32, i32* %6, align 4
  %66 = add nsw i32 %65, 1
  store i32 %66, i32* %6, align 4
  br label %67

67:                                               ; preds = %59, %55
  br label %68

68:                                               ; preds = %67
  %69 = load i32, i32* %2, align 4
  %70 = add nsw i32 %69, 1
  store i32 %70, i32* %2, align 4
  br label %36

71:                                               ; preds = %36
  store i32 1, i32* %4, align 4
  br label %72

72:                                               ; preds = %104, %71
  %73 = load i32, i32* %4, align 4
  %74 = load i32, i32* %6, align 4
  %75 = icmp slt i32 %73, %74
  br i1 %75, label %76, label %107

76:                                               ; preds = %72
  %77 = load i32*, i32** %5, align 8
  %78 = load i32, i32* %4, align 4
  %79 = sext i32 %78 to i64
  %80 = getelementptr inbounds i32, i32* %77, i64 %79
  %81 = getelementptr inbounds i32, i32* %80, i64 1
  %82 = load i32, i32* %81, align 4
  %83 = load i32*, i32** %5, align 8
  %84 = load i32, i32* %4, align 4
  %85 = sext i32 %84 to i64
  %86 = getelementptr inbounds i32, i32* %83, i64 %85
  %87 = load i32, i32* %86, align 4
  %88 = sub nsw i32 %82, %87
  %89 = icmp eq i32 %88, 2
  br i1 %89, label %90, label %103

90:                                               ; preds = %76
  %91 = load i32*, i32** %5, align 8
  %92 = load i32, i32* %4, align 4
  %93 = sext i32 %92 to i64
  %94 = getelementptr inbounds i32, i32* %91, i64 %93
  %95 = load i32, i32* %94, align 4
  %96 = load i32*, i32** %5, align 8
  %97 = load i32, i32* %4, align 4
  %98 = sext i32 %97 to i64
  %99 = getelementptr inbounds i32, i32* %96, i64 %98
  %100 = getelementptr inbounds i32, i32* %99, i64 1
  %101 = load i32, i32* %100, align 4
  %102 = call i32 (i8*, ...) @printf(i8* getelementptr inbounds ([7 x i8], [7 x i8]* @.str.2, i64 0, i64 0), i32 %95, i32 %101)
  br label %103

103:                                              ; preds = %90, %76
  br label %104

104:                                              ; preds = %103
  %105 = load i32, i32* %4, align 4
  %106 = add nsw i32 %105, 1
  store i32 %106, i32* %4, align 4
  br label %72

107:                                              ; preds = %72
  br label %108

108:                                              ; preds = %107, %32
  ret void
}

declare dso_local i32 @__isoc99_scanf(i8*, ...) #1

; Function Attrs: nounwind
declare dso_local noalias i8* @malloc(i64) #2

declare dso_local i32 @printf(i8*, ...) #1


!llvm.module.flags = !{!0}
!llvm.ident = !{!1}

!0 = !{i32 1, !"wchar_size", i32 4}
!1 = !{!"clang version 10.0.0-4ubuntu1 "}
